; ModuleID = '58/1008.c'
source_filename = "58/1008.c"
target datalayout = "e-m:e-p270:32:32-p271:32:32-p272:64:64-i64:64-f80:128-n8:16:32:64-S128"
target triple = "x86_64-pc-linux-gnu"

@.str = private unnamed_addr constant [3 x i8] c"%d\00", align 1
@.str.1 = private unnamed_addr constant [3 x i8] c"0\0A\00", align 1
@.str.2 = private unnamed_addr constant [3 x i8] c"1\0A\00", align 1

; Function Attrs: noinline nounwind uwtable
define dso_local void @main() #0 {
  %1 = alloca [100 x i8*], align 16
  %2 = alloca [2 x i8], align 1
  %3 = alloca i32, align 4
  %4 = alloca i32, align 4
  %5 = alloca i32, align 4
  %6 = call i32 (i8*, ...) @__isoc99_scanf(i8* getelementptr inbounds ([3 x i8], [3 x i8]* @.str, i64 0, i64 0), i32* %5)
  %7 = getelementptr inbounds [2 x i8], [2 x i8]* %2, i64 0, i64 0
  %8 = call i32 (i8*, ...) bitcast (i32 (...)* @gets to i32 (i8*, ...)*)(i8* %7)
  store i32 0, i32* %3, align 4
  br label %9

9:                                                ; preds = %18, %0
  %10 = load i32, i32* %3, align 4
  %11 = load i32, i32* %5, align 4
  %12 = icmp slt i32 %10, %11
  br i1 %12, label %13, label %21

13:                                               ; preds = %9
  %14 = call noalias i8* @malloc(i64 124) #3
  %15 = load i32, i32* %3, align 4
  %16 = sext i32 %15 to i64
  %17 = getelementptr inbounds [100 x i8*], [100 x i8*]* %1, i64 0, i64 %16
  store i8* %14, i8** %17, align 8
  br label %18

18:                                               ; preds = %13
  %19 = load i32, i32* %3, align 4
  %20 = add nsw i32 %19, 1
  store i32 %20, i32* %3, align 4
  br label %9

21:                                               ; preds = %9
  store i32 0, i32* %3, align 4
  br label %22

22:                                               ; preds = %32, %21
  %23 = load i32, i32* %3, align 4
  %24 = load i32, i32* %5, align 4
  %25 = icmp slt i32 %23, %24
  br i1 %25, label %26, label %35

26:                                               ; preds = %22
  %27 = load i32, i32* %3, align 4
  %28 = sext i32 %27 to i64
  %29 = getelementptr inbounds [100 x i8*], [100 x i8*]* %1, i64 0, i64 %28
  %30 = load i8*, i8** %29, align 8
  %31 = call i32 (i8*, ...) bitcast (i32 (...)* @gets to i32 (i8*, ...)*)(i8* %30)
  br label %32

32:                                               ; preds = %26
  %33 = load i32, i32* %3, align 4
  %34 = add nsw i32 %33, 1
  store i32 %34, i32* %3, align 4
  br label %22

35:                                               ; preds = %22
  store i32 0, i32* %3, align 4
  br label %36

36:                                               ; preds = %207, %35
  %37 = load i32, i32* %3, align 4
  %38 = load i32, i32* %5, align 4
  %39 = icmp slt i32 %37, %38
  br i1 %39, label %40, label %210

40:                                               ; preds = %36
  %41 = getelementptr inbounds [100 x i8*], [100 x i8*]* %1, i64 0, i64 0
  %42 = load i32, i32* %3, align 4
  %43 = sext i32 %42 to i64
  %44 = getelementptr inbounds i8*, i8** %41, i64 %43
  %45 = load i8*, i8** %44, align 8
  %46 = load i8, i8* %45, align 1
  %47 = sext i8 %46 to i32
  %48 = icmp sge i32 %47, 97
  br i1 %48, label %49, label %58

49:                                               ; preds = %40
  %50 = getelementptr inbounds [100 x i8*], [100 x i8*]* %1, i64 0, i64 0
  %51 = load i32, i32* %3, align 4
  %52 = sext i32 %51 to i64
  %53 = getelementptr inbounds i8*, i8** %50, i64 %52
  %54 = load i8*, i8** %53, align 8
  %55 = load i8, i8* %54, align 1
  %56 = sext i8 %55 to i32
  %57 = icmp sle i32 %56, 122
  br i1 %57, label %85, label %58

58:                                               ; preds = %49, %40
  %59 = getelementptr inbounds [100 x i8*], [100 x i8*]* %1, i64 0, i64 0
  %60 = load i32, i32* %3, align 4
  %61 = sext i32 %60 to i64
  %62 = getelementptr inbounds i8*, i8** %59, i64 %61
  %63 = load i8*, i8** %62, align 8
  %64 = load i8, i8* %63, align 1
  %65 = sext i8 %64 to i32
  %66 = icmp sge i32 %65, 65
  br i1 %66, label %67, label %76

67:                                               ; preds = %58
  %68 = getelementptr inbounds [100 x i8*], [100 x i8*]* %1, i64 0, i64 0
  %69 = load i32, i32* %3, align 4
  %70 = sext i32 %69 to i64
  %71 = getelementptr inbounds i8*, i8** %68, i64 %70
  %72 = load i8*, i8** %71, align 8
  %73 = load i8, i8* %72, align 1
  %74 = sext i8 %73 to i32
  %75 = icmp sle i32 %74, 90
  br i1 %75, label %85, label %76

76:                                               ; preds = %67, %58
  %77 = getelementptr inbounds [100 x i8*], [100 x i8*]* %1, i64 0, i64 0
  %78 = load i32, i32* %3, align 4
  %79 = sext i32 %78 to i64
  %80 = getelementptr inbounds i8*, i8** %77, i64 %79
  %81 = load i8*, i8** %80, align 8
  %82 = load i8, i8* %81, align 1
  %83 = sext i8 %82 to i32
  %84 = icmp eq i32 %83, 95
  br i1 %84, label %85, label %204

85:                                               ; preds = %76, %67, %49
  store i32 0, i32* %4, align 4
  br label %86

86:                                               ; preds = %184, %85
  %87 = getelementptr inbounds [100 x i8*], [100 x i8*]* %1, i64 0, i64 0
  %88 = load i32, i32* %3, align 4
  %89 = sext i32 %88 to i64
  %90 = getelementptr inbounds i8*, i8** %87, i64 %89
  %91 = load i8*, i8** %90, align 8
  %92 = load i32, i32* %4, align 4
  %93 = sext i32 %92 to i64
  %94 = getelementptr inbounds i8, i8* %91, i64 %93
  %95 = load i8, i8* %94, align 1
  %96 = sext i8 %95 to i32
  %97 = icmp ne i32 %96, 0
  br i1 %97, label %98, label %187

98:                                               ; preds = %86
  %99 = getelementptr inbounds [100 x i8*], [100 x i8*]* %1, i64 0, i64 0
  %100 = load i32, i32* %3, align 4
  %101 = sext i32 %100 to i64
  %102 = getelementptr inbounds i8*, i8** %99, i64 %101
  %103 = load i8*, i8** %102, align 8
  %104 = load i32, i32* %4, align 4
  %105 = sext i32 %104 to i64
  %106 = getelementptr inbounds i8, i8* %103, i64 %105
  %107 = load i8, i8* %106, align 1
  %108 = sext i8 %107 to i32
  %109 = icmp sge i32 %108, 97
  br i1 %109, label %110, label %122

110:                                              ; preds = %98
  %111 = getelementptr inbounds [100 x i8*], [100 x i8*]* %1, i64 0, i64 0
  %112 = load i32, i32* %3, align 4
  %113 = sext i32 %112 to i64
  %114 = getelementptr inbounds i8*, i8** %111, i64 %113
  %115 = load i8*, i8** %114, align 8
  %116 = load i32, i32* %4, align 4
  %117 = sext i32 %116 to i64
  %118 = getelementptr inbounds i8, i8* %115, i64 %117
  %119 = load i8, i8* %118, align 1
  %120 = sext i8 %119 to i32
  %121 = icmp sle i32 %120, 122
  br i1 %121, label %183, label %122

122:                                              ; preds = %110, %98
  %123 = getelementptr inbounds [100 x i8*], [100 x i8*]* %1, i64 0, i64 0
  %124 = load i32, i32* %3, align 4
  %125 = sext i32 %124 to i64
  %126 = getelementptr inbounds i8*, i8** %123, i64 %125
  %127 = load i8*, i8** %126, align 8
  %128 = load i32, i32* %4, align 4
  %129 = sext i32 %128 to i64
  %130 = getelementptr inbounds i8, i8* %127, i64 %129
  %131 = load i8, i8* %130, align 1
  %132 = sext i8 %131 to i32
  %133 = icmp sge i32 %132, 65
  br i1 %133, label %134, label %146

134:                                              ; preds = %122
  %135 = getelementptr inbounds [100 x i8*], [100 x i8*]* %1, i64 0, i64 0
  %136 = load i32, i32* %3, align 4
  %137 = sext i32 %136 to i64
  %138 = getelementptr inbounds i8*, i8** %135, i64 %137
  %139 = load i8*, i8** %138, align 8
  %140 = load i32, i32* %4, align 4
  %141 = sext i32 %140 to i64
  %142 = getelementptr inbounds i8, i8* %139, i64 %141
  %143 = load i8, i8* %142, align 1
  %144 = sext i8 %143 to i32
  %145 = icmp sle i32 %144, 90
  br i1 %145, label %183, label %146

146:                                              ; preds = %134, %122
  %147 = getelementptr inbounds [100 x i8*], [100 x i8*]* %1, i64 0, i64 0
  %148 = load i32, i32* %3, align 4
  %149 = sext i32 %148 to i64
  %150 = getelementptr inbounds i8*, i8** %147, i64 %149
  %151 = load i8*, i8** %150, align 8
  %152 = load i32, i32* %4, align 4
  %153 = sext i32 %152 to i64
  %154 = getelementptr inbounds i8, i8* %151, i64 %153
  %155 = load i8, i8* %154, align 1
  %156 = sext i8 %155 to i32
  %157 = icmp eq i32 %156, 95
  br i1 %157, label %183, label %158

158:                                              ; preds = %146
  %159 = getelementptr inbounds [100 x i8*], [100 x i8*]* %1, i64 0, i64 0
  %160 = load i32, i32* %3, align 4
  %161 = sext i32 %160 to i64
  %162 = getelementptr inbounds i8*, i8** %159, i64 %161
  %163 = load i8*, i8** %162, align 8
  %164 = load i32, i32* %4, align 4
  %165 = sext i32 %164 to i64
  %166 = getelementptr inbounds i8, i8* %163, i64 %165
  %167 = load i8, i8* %166, align 1
  %168 = sext i8 %167 to i32
  %169 = icmp sge i32 %168, 48
  br i1 %169, label %170, label %182

170:                                              ; preds = %158
  %171 = getelementptr inbounds [100 x i8*], [100 x i8*]* %1, i64 0, i64 0
  %172 = load i32, i32* %3, align 4
  %173 = sext i32 %172 to i64
  %174 = getelementptr inbounds i8*, i8** %171, i64 %173
  %175 = load i8*, i8** %174, align 8
  %176 = load i32, i32* %4, align 4
  %177 = sext i32 %176 to i64
  %178 = getelementptr inbounds i8, i8* %175, i64 %177
  %179 = load i8, i8* %178, align 1
  %180 = sext i8 %179 to i32
  %181 = icmp sle i32 %180, 57
  br i1 %181, label %183, label %182

182:                                              ; preds = %170, %158
  br label %187

183:                                              ; preds = %170, %146, %134, %110
  br label %184

184:                                              ; preds = %183
  %185 = load i32, i32* %4, align 4
  %186 = add nsw i32 %185, 1
  store i32 %186, i32* %4, align 4
  br label %86

187:                                              ; preds = %182, %86
  %188 = getelementptr inbounds [100 x i8*], [100 x i8*]* %1, i64 0, i64 0
  %189 = load i32, i32* %3, align 4
  %190 = sext i32 %189 to i64
  %191 = getelementptr inbounds i8*, i8** %188, i64 %190
  %192 = load i8*, i8** %191, align 8
  %193 = load i32, i32* %4, align 4
  %194 = sext i32 %193 to i64
  %195 = getelementptr inbounds i8, i8* %192, i64 %194
  %196 = load i8, i8* %195, align 1
  %197 = sext i8 %196 to i32
  %198 = icmp ne i32 %197, 0
  br i1 %198, label %199, label %201

199:                                              ; preds = %187
  %200 = call i32 (i8*, ...) @printf(i8* getelementptr inbounds ([3 x i8], [3 x i8]* @.str.1, i64 0, i64 0))
  br label %203

201:                                              ; preds = %187
  %202 = call i32 (i8*, ...) @printf(i8* getelementptr inbounds ([3 x i8], [3 x i8]* @.str.2, i64 0, i64 0))
  br label %203

203:                                              ; preds = %201, %199
  br label %206

204:                                              ; preds = %76
  %205 = call i32 (i8*, ...) @printf(i8* getelementptr inbounds ([3 x i8], [3 x i8]* @.str.1, i64 0, i64 0))
  br label %206

206:                                              ; preds = %204, %203
  br label %207

207:                                              ; preds = %206
  %208 = load i32, i32* %3, align 4
  %209 = add nsw i32 %208, 1
  store i32 %209, i32* %3, align 4
  br label %36

210:                                              ; preds = %36
  ret void
}

declare dso_local i32 @__isoc99_scanf(i8*, ...) #1

declare dso_local i32 @gets(...) #1

; Function Attrs: nounwind
declare dso_local noalias i8* @malloc(i64) #2

declare dso_local i32 @printf(i8*, ...) #1


!llvm.module.flags = !{!0}
!llvm.ident = !{!1}

!0 = !{i32 1, !"wchar_size", i32 4}
!1 = !{!"clang version 10.0.0-4ubuntu1 "}
